target datalayout = "e-m:e-p270:32:32-p271:32:32-p272:64:64-i64:64-i128:128-f80:128-n8:16:32:64-S128"
target triple = "x86_64-pc-linux-gnu"

%struct.evp_cipher_ctx_st = type { ptr, ptr, i32, i32, [16 x i8], [16 x i8], [32 x i8], i32, ptr, i32, i32, i64, ptr, i32, i32, [32 x i8], i64, ptr, ptr }
%struct.evp_cipher_st = type { i32, i32, i32, i32, i64, i32, ptr, ptr, ptr, i32, ptr, ptr, ptr, ptr, i32, ptr, ptr, ptr, %struct.CRYPTO_REF_COUNT, ptr, ptr, ptr, ptr, ptr, ptr, ptr, ptr, ptr, ptr, ptr, ptr, ptr, ptr, ptr, ptr, ptr, ptr, ptr, ptr }
%struct.CRYPTO_REF_COUNT = type { i32 }

@.str = private unnamed_addr constant [32 x i8] c"../openssl/crypto/evp/evp_enc.c\00", align 1

; Function Attrs: inlinehint nounwind uwtable
define internal void @CRYPTO_FREE_REF(ptr noundef %0) #6 {
  %2 = alloca ptr, align 8
  store ptr %0, ptr %2, align 8, !tbaa !81
  ret void
}

; Function Attrs: nounwind uwtable
define void @evp_cipher_free_int(ptr noundef %0) #0 {
  %2 = alloca ptr, align 8
  store ptr %0, ptr %2, align 8, !tbaa !27
  %3 = load ptr, ptr %2, align 8, !tbaa !27
  %4 = getelementptr inbounds nuw %struct.evp_cipher_st, ptr %3, i32 0, i32 15
  %5 = load ptr, ptr %4, align 8, !tbaa !107
  call void @CRYPTO_free(ptr noundef %5, ptr noundef @.str, i32 noundef 2105)
  %6 = load ptr, ptr %2, align 8, !tbaa !27
  %7 = getelementptr inbounds nuw %struct.evp_cipher_st, ptr %6, i32 0, i32 17
  %8 = load ptr, ptr %7, align 8, !tbaa !14
  call void @ossl_provider_free(ptr noundef %8)
  %9 = load ptr, ptr %2, align 8, !tbaa !27
  %10 = getelementptr inbounds nuw %struct.evp_cipher_st, ptr %9, i32 0, i32 18
  call void @CRYPTO_FREE_REF(ptr noundef %10)
  %11 = load ptr, ptr %2, align 8, !tbaa !27
  call void @CRYPTO_free(ptr noundef %11, ptr noundef @.str, i32 noundef 2108)
  ret void
}

; Function Attrs: inlinehint nounwind uwtable
define internal i32 @CRYPTO_DOWN_REF(ptr noundef %0, ptr noundef %1) #6 {
  %3 = alloca ptr, align 8
  %4 = alloca ptr, align 8
  %5 = alloca i32, align 4
  %6 = alloca i32, align 4
  store ptr %0, ptr %3, align 8, !tbaa !81
  store ptr %1, ptr %4, align 8, !tbaa !66
  %7 = load ptr, ptr %3, align 8, !tbaa !81
  %8 = getelementptr inbounds nuw %struct.CRYPTO_REF_COUNT, ptr %7, i32 0, i32 0
  store i32 1, ptr %5, align 4, !tbaa !29
  %9 = load i32, ptr %5, align 4
  %10 = atomicrmw sub ptr %8, i32 %9 release, align 4
  store i32 %10, ptr %6, align 4
  %11 = load i32, ptr %6, align 4, !tbaa !29
  %12 = sub nsw i32 %11, 1
  %13 = load ptr, ptr %4, align 8, !tbaa !66
  store i32 %12, ptr %13, align 4, !tbaa !29
  %14 = load ptr, ptr %4, align 8, !tbaa !66
  %15 = load i32, ptr %14, align 4, !tbaa !29
  %16 = icmp eq i32 %15, 0
  br i1 %16, label %17, label %18

17:                                               ; preds = %2
  fence acquire
  br label %18

18:                                               ; preds = %17, %2
  ret i32 1
}

; Function Attrs: nounwind uwtable
define void @EVP_CIPHER_free(ptr noundef %0) #0 {
  %2 = alloca ptr, align 8
  %3 = alloca i32, align 4
  %4 = alloca i32, align 4
  store ptr %0, ptr %2, align 8, !tbaa !27
  call void @llvm.lifetime.start.p0(i64 4, ptr %3) #9
  %5 = load ptr, ptr %2, align 8, !tbaa !27
  %6 = icmp eq ptr %5, null
  br i1 %6, label %12, label %7

7:                                                ; preds = %1
  %8 = load ptr, ptr %2, align 8, !tbaa !27
  %9 = getelementptr inbounds nuw %struct.evp_cipher_st, ptr %8, i32 0, i32 5
  %10 = load i32, ptr %9, align 8, !tbaa !28
  %11 = icmp ne i32 %10, 0
  br i1 %11, label %12, label %13

12:                                               ; preds = %7, %1
  store i32 1, ptr %4, align 4
  br label %22

13:                                               ; preds = %7
  %14 = load ptr, ptr %2, align 8, !tbaa !27
  %15 = getelementptr inbounds nuw %struct.evp_cipher_st, ptr %14, i32 0, i32 18
  %16 = call i32 @CRYPTO_DOWN_REF(ptr noundef %15, ptr noundef %3)
  %17 = load i32, ptr %3, align 4, !tbaa !29
  %18 = icmp sgt i32 %17, 0
  br i1 %18, label %19, label %20

19:                                               ; preds = %13
  store i32 1, ptr %4, align 4
  br label %22

20:                                               ; preds = %13
  %21 = load ptr, ptr %2, align 8, !tbaa !27
  call void @evp_cipher_free_int(ptr noundef %21)
  store i32 0, ptr %4, align 4
  br label %22

22:                                               ; preds = %20, %19, %12
  call void @llvm.lifetime.end.p0(i64 4, ptr %3) #9
  %23 = load i32, ptr %4, align 4
  switch i32 %23, label %25 [
    i32 0, label %24
    i32 1, label %24
  ]

24:                                               ; preds = %22, %22
  ret void

25:                                               ; preds = %22
  unreachable
}

; Function Attrs: nounwind uwtable
define i32 @EVP_CIPHER_CTX_reset(ptr noundef %0) #0 {
  %2 = alloca i32, align 4
  %3 = alloca ptr, align 8
  store ptr %0, ptr %3, align 8, !tbaa !3
  %4 = load ptr, ptr %3, align 8, !tbaa !3
  %5 = icmp eq ptr %4, null
  br i1 %5, label %6, label %7

6:                                                ; preds = %1
  store i32 1, ptr %2, align 4
  br label %113

7:                                                ; preds = %1
  %8 = load ptr, ptr %3, align 8, !tbaa !3
  %9 = getelementptr inbounds nuw %struct.evp_cipher_ctx_st, ptr %8, i32 0, i32 0
  %10 = load ptr, ptr %9, align 8, !tbaa !8
  %11 = icmp eq ptr %10, null
  br i1 %11, label %19, label %12

12:                                               ; preds = %7
  %13 = load ptr, ptr %3, align 8, !tbaa !3
  %14 = getelementptr inbounds nuw %struct.evp_cipher_ctx_st, ptr %13, i32 0, i32 0
  %15 = load ptr, ptr %14, align 8, !tbaa !8
  %16 = getelementptr inbounds nuw %struct.evp_cipher_st, ptr %15, i32 0, i32 17
  %17 = load ptr, ptr %16, align 8, !tbaa !14
  %18 = icmp eq ptr %17, null
  br i1 %18, label %19, label %20

19:                                               ; preds = %12, %7
  br label %57

20:                                               ; preds = %12
  %21 = load ptr, ptr %3, align 8, !tbaa !3
  %22 = getelementptr inbounds nuw %struct.evp_cipher_ctx_st, ptr %21, i32 0, i32 17
  %23 = load ptr, ptr %22, align 8, !tbaa !19
  %24 = icmp ne ptr %23, null
  br i1 %24, label %25, label %44

25:                                               ; preds = %20
  %26 = load ptr, ptr %3, align 8, !tbaa !3
  %27 = getelementptr inbounds nuw %struct.evp_cipher_ctx_st, ptr %26, i32 0, i32 0
  %28 = load ptr, ptr %27, align 8, !tbaa !8
  %29 = getelementptr inbounds nuw %struct.evp_cipher_st, ptr %28, i32 0, i32 29
  %30 = load ptr, ptr %29, align 8, !tbaa !20
  %31 = icmp ne ptr %30, null
  br i1 %31, label %32, label %41

32:                                               ; preds = %25
  %33 = load ptr, ptr %3, align 8, !tbaa !3
  %34 = getelementptr inbounds nuw %struct.evp_cipher_ctx_st, ptr %33, i32 0, i32 0
  %35 = load ptr, ptr %34, align 8, !tbaa !8
  %36 = getelementptr inbounds nuw %struct.evp_cipher_st, ptr %35, i32 0, i32 29
  %37 = load ptr, ptr %36, align 8, !tbaa !20
  %38 = load ptr, ptr %3, align 8, !tbaa !3
  %39 = getelementptr inbounds nuw %struct.evp_cipher_ctx_st, ptr %38, i32 0, i32 17
  %40 = load ptr, ptr %39, align 8, !tbaa !19
  call void %37(ptr noundef %40)
  br label %41

41:                                               ; preds = %32, %25
  %42 = load ptr, ptr %3, align 8, !tbaa !3
  %43 = getelementptr inbounds nuw %struct.evp_cipher_ctx_st, ptr %42, i32 0, i32 17
  store ptr null, ptr %43, align 8, !tbaa !19
  br label %44

44:                                               ; preds = %41, %20
  %45 = load ptr, ptr %3, align 8, !tbaa !3
  %46 = getelementptr inbounds nuw %struct.evp_cipher_ctx_st, ptr %45, i32 0, i32 18
  %47 = load ptr, ptr %46, align 8, !tbaa !21
  %48 = icmp ne ptr %47, null
  br i1 %48, label %49, label %53

49:                                               ; preds = %44
  %50 = load ptr, ptr %3, align 8, !tbaa !3
  %51 = getelementptr inbounds nuw %struct.evp_cipher_ctx_st, ptr %50, i32 0, i32 18
  %52 = load ptr, ptr %51, align 8, !tbaa !21
  call void @EVP_CIPHER_free(ptr noundef %52)
  br label %53

53:                                               ; preds = %49, %44
  %54 = load ptr, ptr %3, align 8, !tbaa !3
  call void @llvm.memset.p0.i64(ptr align 8 %54, i8 0, i64 192, i1 false)
  %55 = load ptr, ptr %3, align 8, !tbaa !3
  %56 = getelementptr inbounds nuw %struct.evp_cipher_ctx_st, ptr %55, i32 0, i32 10
  store i32 -1, ptr %56, align 4, !tbaa !22
  store i32 1, ptr %2, align 4
  br label %113

57:                                               ; preds = %19
  %58 = load ptr, ptr %3, align 8, !tbaa !3
  %59 = getelementptr inbounds nuw %struct.evp_cipher_ctx_st, ptr %58, i32 0, i32 0
  %60 = load ptr, ptr %59, align 8, !tbaa !8
  %61 = icmp ne ptr %60, null
  br i1 %61, label %62, label %102

62:                                               ; preds = %57
  %63 = load ptr, ptr %3, align 8, !tbaa !3
  %64 = getelementptr inbounds nuw %struct.evp_cipher_ctx_st, ptr %63, i32 0, i32 0
  %65 = load ptr, ptr %64, align 8, !tbaa !8
  %66 = getelementptr inbounds nuw %struct.evp_cipher_st, ptr %65, i32 0, i32 8
  %67 = load ptr, ptr %66, align 8, !tbaa !23
  %68 = icmp ne ptr %67, null
  br i1 %68, label %69, label %79

69:                                               ; preds = %62
  %70 = load ptr, ptr %3, align 8, !tbaa !3
  %71 = getelementptr inbounds nuw %struct.evp_cipher_ctx_st, ptr %70, i32 0, i32 0
  %72 = load ptr, ptr %71, align 8, !tbaa !8
  %73 = getelementptr inbounds nuw %struct.evp_cipher_st, ptr %72, i32 0, i32 8
  %74 = load ptr, ptr %73, align 8, !tbaa !23
  %75 = load ptr, ptr %3, align 8, !tbaa !3
  %76 = call i32 %74(ptr noundef %75)
  %77 = icmp ne i32 %76, 0
  br i1 %77, label %79, label %78

78:                                               ; preds = %69
  store i32 0, ptr %2, align 4
  br label %113

79:                                               ; preds = %69, %62
  %80 = load ptr, ptr %3, align 8, !tbaa !3
  %81 = getelementptr inbounds nuw %struct.evp_cipher_ctx_st, ptr %80, i32 0, i32 12
  %82 = load ptr, ptr %81, align 8, !tbaa !24
  %83 = icmp ne ptr %82, null
  br i1 %83, label %84, label %101

84:                                               ; preds = %79
  %85 = load ptr, ptr %3, align 8, !tbaa !3
  %86 = getelementptr inbounds nuw %struct.evp_cipher_ctx_st, ptr %85, i32 0, i32 0
  %87 = load ptr, ptr %86, align 8, !tbaa !8
  %88 = getelementptr inbounds nuw %struct.evp_cipher_st, ptr %87, i32 0, i32 9
  %89 = load i32, ptr %88, align 8, !tbaa !25
  %90 = icmp ne i32 %89, 0
  br i1 %90, label %91, label %101

91:                                               ; preds = %84
  %92 = load ptr, ptr %3, align 8, !tbaa !3
  %93 = getelementptr inbounds nuw %struct.evp_cipher_ctx_st, ptr %92, i32 0, i32 12
  %94 = load ptr, ptr %93, align 8, !tbaa !24
  %95 = load ptr, ptr %3, align 8, !tbaa !3
  %96 = getelementptr inbounds nuw %struct.evp_cipher_ctx_st, ptr %95, i32 0, i32 0
  %97 = load ptr, ptr %96, align 8, !tbaa !8
  %98 = getelementptr inbounds nuw %struct.evp_cipher_st, ptr %97, i32 0, i32 9
  %99 = load i32, ptr %98, align 8, !tbaa !25
  %100 = sext i32 %99 to i64
  call void @OPENSSL_cleanse(ptr noundef %94, i64 noundef %100)
  br label %101

101:                                              ; preds = %91, %84, %79
  br label %102

102:                                              ; preds = %101, %57
  %103 = load ptr, ptr %3, align 8, !tbaa !3
  %104 = getelementptr inbounds nuw %struct.evp_cipher_ctx_st, ptr %103, i32 0, i32 12
  %105 = load ptr, ptr %104, align 8, !tbaa !24
  call void @CRYPTO_free(ptr noundef %105, ptr noundef @.str, i32 noundef 63)
  %106 = load ptr, ptr %3, align 8, !tbaa !3
  %107 = getelementptr inbounds nuw %struct.evp_cipher_ctx_st, ptr %106, i32 0, i32 1
  %108 = load ptr, ptr %107, align 8, !tbaa !26
  %109 = call i32 @ENGINE_finish(ptr noundef %108)
  %110 = load ptr, ptr %3, align 8, !tbaa !3
  call void @llvm.memset.p0.i64(ptr align 8 %110, i8 0, i64 192, i1 false)
  %111 = load ptr, ptr %3, align 8, !tbaa !3
  %112 = getelementptr inbounds nuw %struct.evp_cipher_ctx_st, ptr %111, i32 0, i32 10
  store i32 -1, ptr %112, align 4, !tbaa !22
  store i32 1, ptr %2, align 4
  br label %113

113:                                              ; preds = %102, %78, %53, %6
  %114 = load i32, ptr %2, align 4
  ret i32 %114
}