; Function Attrs: nounwind uwtable
define range(i32 0, 2) i32 @EVP_CIPHER_CTX_reset(ptr noundef %0) local_unnamed_addr #0 {
  %2 = icmp eq ptr %0, null
  br i1 %2, label %54, label %3

3:                                                ; preds = %1
  %4 = load ptr, ptr %0, align 8, !tbaa !3
  %5 = icmp eq ptr %4, null
  br i1 %5, label %.thread, label %6

6:                                                ; preds = %3
  %7 = getelementptr inbounds nuw i8, ptr %4, i64 120
  %8 = load ptr, ptr %7, align 8, !tbaa !12
  %9 = icmp eq ptr %8, null
  br i1 %9, label %34, label %10

10:                                               ; preds = %6
  %11 = getelementptr inbounds nuw i8, ptr %0, i64 176
  %12 = load ptr, ptr %11, align 8, !tbaa !17
  %.not = icmp eq ptr %12, null
  br i1 %.not, label %18, label %13

13:                                               ; preds = %10
  %14 = getelementptr inbounds nuw i8, ptr %4, i64 216
  %15 = load ptr, ptr %14, align 8, !tbaa !18
  %.not33 = icmp eq ptr %15, null
  br i1 %.not33, label %17, label %16

16:                                               ; preds = %13
  tail call void %15(ptr noundef nonnull %12) #10
  br label %17

17:                                               ; preds = %16, %13
  store ptr null, ptr %11, align 8, !tbaa !17
  br label %18

18:                                               ; preds = %17, %10
  %19 = getelementptr inbounds nuw i8, ptr %0, i64 184
  %20 = load ptr, ptr %19, align 8, !tbaa !19
  %.not34 = icmp eq ptr %20, null
  br i1 %.not34, label %.sink.split, label %21

21:                                               ; preds = %18
  %22 = getelementptr inbounds nuw i8, ptr %20, i64 24
  %23 = load i32, ptr %22, align 8, !tbaa !20
  %.not.i = icmp eq i32 %23, 0
  br i1 %.not.i, label %24, label %.sink.split

24:                                               ; preds = %21
  %25 = getelementptr inbounds nuw i8, ptr %20, i64 128
  %26 = atomicrmw sub ptr %25, i32 1 release, align 4
  %27 = icmp eq i32 %26, 1
  br i1 %27, label %CRYPTO_DOWN_REF.exit.thread.i, label %CRYPTO_DOWN_REF.exit.i

CRYPTO_DOWN_REF.exit.thread.i:                    ; preds = %24
  fence acquire
  br label %29

CRYPTO_DOWN_REF.exit.i:                           ; preds = %24
  %28 = icmp sgt i32 %26, 1
  br i1 %28, label %.sink.split, label %29

29:                                               ; preds = %CRYPTO_DOWN_REF.exit.i, %CRYPTO_DOWN_REF.exit.thread.i
  %30 = getelementptr inbounds nuw i8, ptr %20, i64 104
  %31 = load ptr, ptr %30, align 8, !tbaa !21
  tail call void @CRYPTO_free(ptr noundef %31, ptr noundef nonnull @.str, i32 noundef 2105) #10
  %32 = getelementptr inbounds nuw i8, ptr %20, i64 120
  %33 = load ptr, ptr %32, align 8, !tbaa !12
  tail call void @ossl_provider_free(ptr noundef %33) #10
  tail call void @CRYPTO_free(ptr noundef nonnull %20, ptr noundef nonnull @.str, i32 noundef 2108) #10
  br label %.sink.split

34:                                               ; preds = %6
  %35 = getelementptr inbounds nuw i8, ptr %4, i64 48
  %36 = load ptr, ptr %35, align 8, !tbaa !22
  %.not36 = icmp eq ptr %36, null
  br i1 %.not36, label %39, label %37

37:                                               ; preds = %34
  %38 = tail call i32 %36(ptr noundef nonnull %0) #10
  %.not37 = icmp eq i32 %38, 0
  br i1 %.not37, label %54, label %39

39:                                               ; preds = %37, %34
  %40 = getelementptr inbounds nuw i8, ptr %0, i64 120
  %41 = load ptr, ptr %40, align 8, !tbaa !23
  %.not38 = icmp eq ptr %41, null
  br i1 %.not38, label %.thread, label %42

42:                                               ; preds = %39
  %43 = load ptr, ptr %0, align 8, !tbaa !3
  %44 = getelementptr inbounds nuw i8, ptr %43, i64 56
  %45 = load i32, ptr %44, align 8, !tbaa !24
  %.not39 = icmp eq i32 %45, 0
  br i1 %.not39, label %.thread, label %46

46:                                               ; preds = %42
  %47 = sext i32 %45 to i64
  tail call void @OPENSSL_cleanse(ptr noundef nonnull %41, i64 noundef %47) #10
  br label %.thread

.thread:                                          ; preds = %3, %39, %42, %46
  %48 = getelementptr inbounds nuw i8, ptr %0, i64 120
  %49 = load ptr, ptr %48, align 8, !tbaa !23
  tail call void @CRYPTO_free(ptr noundef %49, ptr noundef nonnull @.str, i32 noundef 63) #10
  %50 = getelementptr inbounds nuw i8, ptr %0, i64 8
  %51 = load ptr, ptr %50, align 8, !tbaa !25
  %52 = tail call i32 @ENGINE_finish(ptr noundef %51) #10
  br label %.sink.split

.sink.split:                                      ; preds = %18, %21, %CRYPTO_DOWN_REF.exit.i, %29, %.thread
  tail call void @llvm.memset.p0.i64(ptr noundef nonnull align 8 dereferenceable(192) %0, i8 0, i64 192, i1 false)
  %53 = getelementptr inbounds nuw i8, ptr %0, i64 108
  store i32 -1, ptr %53, align 4, !tbaa !26
  br label %54

54:                                               ; preds = %.sink.split, %37, %1
  %.0 = phi i32 [ 1, %1 ], [ 0, %37 ], [ 1, %.sink.split ]
  ret i32 %.0
}